; Function Attrs: nounwind sspstrong uwtable
define i64 @rb_check_sockaddr_string_type(i64 noundef %0) local_unnamed_addr #0 {
  %2 = tail call i32 @rb_typeddata_is_kind_of(i64 noundef %0, ptr noundef nonnull @addrinfo_type) #21
  %.not = icmp eq i32 %2, 0
  br i1 %.not, label %12, label %3

3:                                                ; preds = %1
  %4 = tail call ptr @rb_check_typeddata(i64 noundef %0, ptr noundef nonnull @addrinfo_type) #21
  %.not.i.i = icmp eq ptr %4, null
  br i1 %.not.i.i, label %5, label %addrinfo_to_sockaddr.exit

5:                                                ; preds = %3
  %6 = load i64, ptr @rb_eTypeError, align 8, !tbaa !35
  tail call void (i64, ptr, ...) @rb_raise(i64 noundef %6, ptr noundef nonnull @.str.101) #23
  unreachable

addrinfo_to_sockaddr.exit:                        ; preds = %3
  %7 = getelementptr inbounds nuw i8, ptr %4, i64 32
  %8 = getelementptr inbounds nuw i8, ptr %4, i64 28
  %9 = load i32, ptr %8, align 4, !tbaa !118
  %10 = zext i32 %9 to i64
  %11 = tail call i64 @rb_str_new(ptr noundef nonnull %7, i64 noundef %10) #21
  br label %14

12:                                               ; preds = %1
  %13 = tail call i64 @rb_check_string_type(i64 noundef %0) #21
  br label %14

14:                                               ; preds = %12, %addrinfo_to_sockaddr.exit
  %.0 = phi i64 [ %11, %addrinfo_to_sockaddr.exit ], [ %13, %12 ]
  ret i64 %.0
}